Certificate:
    Data:
        Version: 3 (0x2)
        Serial Number: 4096 (0x1000)
        Signature Algorithm: sha512WithRSAEncryption
        Issuer: C=BR, O=AC Aurora, CN=AC Aurora
        Validity
            Not Before: Jan 22 20:49:32 2026 GMT
            Not After : Jan 20 20:49:32 2036 GMT
        Subject: CN=AC Aurora Intermediaria, C=BR, O=AC Aurora
        Subject Public Key Info:
            Public Key Algorithm: rsaEncryption
                Public-Key: (4096 bit)
                Modulus:
                    00:d1:8e:ef:4f:b2:cd:ec:65:d3:37:bf:a6:89:72:
                    fa:93:9c:20:26:aa:f2:63:2b:cd:d0:75:17:de:5c:
                    b1:d4:09:b9:7b:02:c2:aa:33:7c:b9:83:c5:49:bd:
                    30:ae:4e:4a:c4:80:88:0f:7a:9b:ac:c6:83:47:d1:
                    48:e5:b1:df:bd:ae:dc:97:12:4d:6b:50:74:a0:12:
                    2a:d0:b6:5a:2a:ab:14:e5:c8:09:04:ba:66:54:f9:
                    c7:05:48:e1:52:13:70:37:d1:a8:2a:e0:2e:85:d0:
                    4f:1c:09:ea:f5:bf:fc:0e:7e:04:30:be:a1:16:9c:
                    53:06:73:66:52:50:1f:1b:ea:79:3b:1f:06:c5:5f:
                    a0:09:2a:28:d8:54:a8:9c:40:ae:78:bb:f9:54:c7:
                    8e:b0:76:b2:25:9c:ef:02:6e:83:e8:74:2b:38:c7:
                    fc:38:de:69:c0:57:25:b3:f3:b9:4a:d9:fa:23:cb:
                    9d:ce:2c:20:40:38:15:67:71:10:ce:22:c0:3e:d9:
                    b7:af:c7:bb:c3:c5:bd:05:d4:af:db:93:71:9c:ad:
                    20:44:29:69:49:c4:89:e3:18:95:27:c3:0b:b0:77:
                    fe:11:a3:cf:5a:86:08:85:be:04:d9:d6:69:87:d0:
                    08:df:43:96:9d:70:fc:a4:ed:81:3a:3d:7d:e4:fd:
                    80:71:09:a8:f0:ff:56:05:98:9f:ac:4c:63:b6:9f:
                    74:57:ab:0c:77:ea:fe:22:d8:48:03:58:12:2f:01:
                    06:27:6b:d9:56:b4:41:49:50:12:1e:04:f7:e5:ce:
                    f8:36:02:c0:b9:5b:c6:75:1f:0a:72:1e:8d:7b:13:
                    16:9f:8e:1e:f2:ff:ab:d9:72:d7:a0:d3:e9:22:c1:
                    f3:e2:79:21:36:80:5b:e1:2e:f7:47:43:54:34:fb:
                    36:bb:ec:01:a4:a0:e7:3a:40:55:d9:ea:64:a6:93:
                    6f:93:dd:42:4f:55:5a:0e:6e:98:93:80:11:bd:4f:
                    51:9d:ad:28:4c:ae:3b:f2:62:e2:0a:a9:8e:ce:b3:
                    24:99:a9:71:eb:77:d1:94:57:34:6c:3b:05:28:c4:
                    be:94:63:44:d8:c6:15:44:13:b6:d6:40:78:a0:d2:
                    d0:90:98:de:04:6c:ba:2e:e5:a1:ef:1e:bd:47:9e:
                    37:8c:5e:cf:d4:39:7a:73:19:75:63:65:f0:c1:c2:
                    bd:3b:a1:2c:a0:08:9d:98:d6:8f:4f:d0:3d:c4:6b:
                    88:34:6b:9a:ac:d4:ee:72:41:b2:62:7b:d7:a5:21:
                    26:8b:f9:92:f3:37:70:49:f7:b7:87:a7:de:43:44:
                    57:8a:c0:0e:1a:57:ca:f5:36:39:1d:d6:fa:77:1c:
                    5f:d0:e5
                Exponent: 65537 (0x10001)
        X509v3 extensions:
            X509v3 Subject Key Identifier: 
                C2:2B:A2:CC:69:C1:67:85:58:BF:74:C6:EE:40:11:E8:DE:76:3C:B3
            X509v3 Authority Key Identifier: 
                F9:E8:3C:9D:0B:BD:24:04:3E:5D:8E:B3:10:F1:AB:24:49:4F:0B:5E
            X509v3 Basic Constraints: critical
                CA:TRUE, pathlen:0
            X509v3 Key Usage: critical
                Certificate Sign, CRL Sign
    Signature Algorithm: sha512WithRSAEncryption
    Signature Value:
        67:d2:79:69:1b:44:86:9c:b1:5b:2f:01:73:d3:f9:81:2a:aa:
        b5:f5:56:80:5e:e3:f2:e6:6b:6c:8e:8b:6b:d5:ba:e6:0f:d3:
        7f:c9:1c:71:22:3f:d9:7c:08:3a:61:49:a6:06:91:0f:ba:d8:
        a6:6d:e8:0b:03:69:ed:6e:ea:96:4c:a2:68:f9:a1:b4:35:ae:
        14:78:01:9c:8b:9b:aa:75:e9:2c:0d:79:df:d7:51:5c:b2:06:
        25:ef:39:1a:4a:f3:e2:75:b2:63:d6:56:27:1e:38:54:a4:be:
        96:7a:d6:37:19:b5:11:ae:0d:bc:32:c8:f1:d7:77:81:44:2d:
        4b:e8:61:fa:5b:38:81:8f:92:30:38:0e:d9:78:d5:c8:6e:f4:
        6c:18:ad:0a:f4:eb:ed:4a:4c:be:ce:f8:eb:75:03:33:55:fc:
        3f:72:5f:d9:56:b2:4f:5b:55:a0:10:1f:70:a9:59:0b:e3:1b:
        93:74:58:2e:19:d7:27:8d:0b:72:d5:d2:c4:74:ec:9e:12:8b:
        67:d2:e0:51:2f:49:63:f7:88:05:6f:aa:31:1d:62:13:14:fc:
        73:e3:0c:0a:b2:c3:50:74:1e:db:10:b0:ad:0f:4c:4b:27:bd:
        dc:9c:00:21:9c:c5:18:59:1e:65:19:20:09:68:b2:01:c4:71:
        05:c2:17:e6:06:40:4e:0e:47:b9:11:01:80:b9:4c:6e:14:78:
        aa:8f:2f:fd:89:1e:a8:53:e9:8c:a9:07:65:61:aa:43:96:dd:
        d2:14:ac:b8:bf:12:e2:96:70:29:fb:7a:d5:51:c3:b3:94:06:
        91:fa:39:d1:ff:4f:87:93:03:ac:83:5a:67:1d:ed:2c:99:6d:
        01:9b:6b:78:af:eb:5b:2c:ed:e6:9d:cb:5b:c3:7b:a3:b0:52:
        76:4c:b8:0f:6a:e6:49:62:87:ee:e2:b0:2c:21:ca:dd:e7:4d:
        b7:5e:5f:55:1a:d3:e8:a4:25:e6:be:00:d4:4c:87:7a:b7:62:
        f8:ec:5c:78:0c:a5:8c:37:fb:7d:3d:ab:18:73:2c:57:08:ea:
        0c:e7:48:ac:6d:e6:08:12:35:93:f7:bd:09:e0:8c:ec:04:c8:
        1b:f0:55:42:16:48:a1:80:73:59:43:14:bf:aa:e1:ae:31:90:
        ed:dc:aa:98:32:49:05:58:a1:ca:1e:33:eb:65:01:54:ea:57:
        a5:22:a9:72:87:be:05:11:b6:2e:db:3c:25:8e:51:1e:68:22:
        fa:df:96:32:8b:a6:88:b3:ff:8c:4f:3a:22:6f:5b:2f:b6:75:
        8f:4f:89:b1:8e:27:95:ba:b2:ca:28:f0:d2:dd:a7:9d:3d:4f:
        c8:72:69:fe:4c:6c:66:a4
-----BEGIN CERTIFICATE-----
MIIFWjCCA0KgAwIBAgICEAAwDQYJKoZIhvcNAQENBQAwNTELMAkGA1UEBhMCQlIx
EjAQBgNVBAoMCUFDIEF1cm9yYTESMBAGA1UEAwwJQUMgQXVyb3JhMB4XDTI2MDEy
MjIwNDkzMloXDTM2MDEyMDIwNDkzMlowQzEgMB4GA1UEAwwXQUMgQXVyb3JhIElu
dGVybWVkaWFyaWExCzAJBgNVBAYTAkJSMRIwEAYDVQQKDAlBQyBBdXJvcmEwggIi
MA0GCSqGSIb3DQEBAQUAA4ICDwAwggIKAoICAQDRju9Pss3sZdM3v6aJcvqTnCAm
qvJjK83QdRfeXLHUCbl7AsKqM3y5g8VJvTCuTkrEgIgPepusxoNH0Ujlsd+9rtyX
Ek1rUHSgEirQtloqqxTlyAkEumZU+ccFSOFSE3A30agq4C6F0E8cCer1v/wOfgQw
vqEWnFMGc2ZSUB8b6nk7HwbFX6AJKijYVKicQK54u/lUx46wdrIlnO8CboPodCs4
x/w43mnAVyWz87lK2fojy53OLCBAOBVncRDOIsA+2bevx7vDxb0F1K/bk3GcrSBE
KWlJxInjGJUnwwuwd/4Ro89ahgiFvgTZ1mmH0AjfQ5adcPyk7YE6PX3k/YBxCajw
/1YFmJ+sTGO2n3RXqwx36v4i2EgDWBIvAQYna9lWtEFJUBIeBPflzvg2AsC5W8Z1
HwpyHo17Exafjh7y/6vZcteg0+kiwfPieSE2gFvhLvdHQ1Q0+za77AGkoOc6QFXZ
6mSmk2+T3UJPVVoObpiTgBG9T1GdrShMrjvyYuIKqY7OsySZqXHrd9GUVzRsOwUo
xL6UY0TYxhVEE7bWQHig0tCQmN4EbLou5aHvHr1HnjeMXs/UOXpzGXVjZfDBwr07
oSygCJ2Y1o9P0D3Ea4g0a5qs1O5yQbJie9elISaL+ZLzN3BJ97eHp95DRFeKwA4a
V8r1Njkd1vp3HF/Q5QIDAQABo2YwZDAdBgNVHQ4EFgQUwiuizGnBZ4VYv3TG7kAR
6N52PLMwHwYDVR0jBBgwFoAU+eg8nQu9JAQ+XY6zEPGrJElPC14wEgYDVR0TAQH/
BAgwBgEB/wIBADAOBgNVHQ8BAf8EBAMCAQYwDQYJKoZIhvcNAQENBQADggIBAGfS
eWkbRIacsVsvAXPT+YEqqrX1VoBe4/Lma2yOi2vVuuYP03/JHHEiP9l8CDphSaYG
kQ+62KZt6AsDae1u6pZMomj5obQ1rhR4AZyLm6p16SwNed/XUVyyBiXvORpK8+J1
smPWViceOFSkvpZ61jcZtRGuDbwyyPHXd4FELUvoYfpbOIGPkjA4Dtl41chu9GwY
rQr06+1KTL7O+Ot1AzNV/D9yX9lWsk9bVaAQH3CpWQvjG5N0WC4Z1yeNC3LV0sR0
7J4Si2fS4FEvSWP3iAVvqjEdYhMU/HPjDAqyw1B0HtsQsK0PTEsnvdycACGcxRhZ
HmUZIAlosgHEcQXCF+YGQE4OR7kRAYC5TG4UeKqPL/2JHqhT6YypB2VhqkOW3dIU
rLi/EuKWcCn7etVRw7OUBpH6OdH/T4eTA6yDWmcd7SyZbQGba3iv61ss7eady1vD
e6OwUnZMuA9q5klih+7isCwhyt3nTbdeX1Ua0+ikJea+ANRMh3q3YvjsXHgMpYw3
+309qxhzLFcI6gznSKxt5ggSNZP3vQngjOwEyBvwVUIWSKGAc1lDFL+q4a4xkO3c
qpgySQVYocoeM+tlAVTqV6UiqXKHvgURti7bPCWOUR5oIvrfljKLpoiz/4xPOiJv
Wy+2dY9PibGOJ5W6ssoo8NLdp509T8hyaf5MbGak
-----END CERTIFICATE-----
